(dp0
S'ref_point'
p1
(dp2
sS'rw_dict'
p3
(dp4
S'ctGRe_0p_cQj18_0p_cQj38_0p_cQj11_1p_cjj31_0p_ctu8_0p_ctd8_0p_ctj8_0p_cQu8_0p_cQd8_0p_ctu1_0p_ctd1_0p_ctj1_0p_cQu1_1p_cQd1_0p'
p5
I68
sS'ctGRe_0p_cQj18_0p_cQj38_0p_cQj11_0p_cjj31_0p_ctu8_1p_ctd8_0p_ctj8_0p_cQu8_0p_cQd8_0p_ctu1_0p_ctd1_0p_ctj1_1p_cQu1_0p_cQd1_0p'
p6
I88
sS'ctGRe_0p_cQj18_0p_cQj38_0p_cQj11_0p_cjj31_0p_ctu8_0p_ctd8_0p_ctj8_0p_cQu8_1p_cQd8_0p_ctu1_0p_ctd1_0p_ctj1_0p_cQu1_1p_cQd1_0p'
p7
I113
sS'ctGRe_0p_cQj18_0p_cQj38_1p_cQj11_0p_cjj31_0p_ctu8_0p_ctd8_0p_ctj8_0p_cQu8_0p_cQd8_0p_ctu1_0p_ctd1_0p_ctj1_0p_cQu1_0p_cQd1_0p'
p8
I3
sS'ctGRe_0p_cQj18_0p_cQj38_1p_cQj11_0p_cjj31_0p_ctu8_0p_ctd8_0p_ctj8_0p_cQu8_0p_cQd8_1p_ctu1_0p_ctd1_0p_ctj1_0p_cQu1_0p_cQd1_0p'
p9
I52
sS'ctGRe_0p_cQj18_0p_cQj38_0p_cQj11_0p_cjj31_0p_ctu8_0p_ctd8_0p_ctj8_1p_cQu8_0p_cQd8_1p_ctu1_0p_ctd1_0p_ctj1_0p_cQu1_0p_cQd1_0p'
p10
I102
sS'ctGRe_2p_cQj18_0p_cQj38_0p_cQj11_0p_cjj31_0p_ctu8_0p_ctd8_0p_ctj8_0p_cQu8_0p_cQd8_0p_ctu1_0p_ctd1_0p_ctj1_0p_cQu1_0p_cQd1_0p'
p11
I16
sS'ctGRe_0p_cQj18_0p_cQj38_0p_cQj11_0p_cjj31_0p_ctu8_0p_ctd8_0p_ctj8_1p_cQu8_0p_cQd8_0p_ctu1_1p_ctd1_0p_ctj1_0p_cQu1_0p_cQd1_0p'
p12
I103
sS'ctGRe_0p_cQj18_2p_cQj38_0p_cQj11_0p_cjj31_0p_ctu8_0p_ctd8_0p_ctj8_0p_cQu8_0p_cQd8_0p_ctu1_0p_ctd1_0p_ctj1_0p_cQu1_0p_cQd1_0p'
p13
I31
sS'ctGRe_0p_cQj18_0p_cQj38_0p_cQj11_0p_cjj31_1p_ctu8_0p_ctd8_0p_ctj8_1p_cQu8_0p_cQd8_0p_ctu1_0p_ctd1_0p_ctj1_0p_cQu1_0p_cQd1_0p'
p14
I73
sS'ctGRe_0p_cQj18_0p_cQj38_0p_cQj11_0p_cjj31_0p_ctu8_1p_ctd8_0p_ctj8_1p_cQu8_0p_cQd8_0p_ctu1_0p_ctd1_0p_ctj1_0p_cQu1_0p_cQd1_0p'
p15
I83
sS'ctGRe_0p_cQj18_0p_cQj38_0p_cQj11_0p_cjj31_0p_ctu8_0p_ctd8_1p_ctj8_0p_cQu8_0p_cQd8_1p_ctu1_0p_ctd1_0p_ctj1_0p_cQu1_0p_cQd1_0p'
p16
I94
sS'ctGRe_1p_cQj18_0p_cQj38_0p_cQj11_0p_cjj31_0p_ctu8_0p_ctd8_0p_ctj8_0p_cQu8_0p_cQd8_0p_ctu1_0p_ctd1_0p_ctj1_0p_cQu1_0p_cQd1_1p'
p17
I30
sS'ctGRe_0p_cQj18_0p_cQj38_0p_cQj11_0p_cjj31_0p_ctu8_0p_ctd8_0p_ctj8_0p_cQu8_0p_cQd8_1p_ctu1_0p_ctd1_1p_ctj1_0p_cQu1_0p_cQd1_0p'
p18
I117
sS'ctGRe_0p_cQj18_0p_cQj38_0p_cQj11_0p_cjj31_0p_ctu8_0p_ctd8_0p_ctj8_0p_cQu8_0p_cQd8_0p_ctu1_0p_ctd1_0p_ctj1_0p_cQu1_0p_cQd1_1p'
p19
I15
sS'ctGRe_0p_cQj18_0p_cQj38_0p_cQj11_0p_cjj31_0p_ctu8_0p_ctd8_0p_ctj8_0p_cQu8_1p_cQd8_0p_ctu1_0p_ctd1_0p_ctj1_1p_cQu1_0p_cQd1_0p'
p20
I112
sS'ctGRe_0p_cQj18_0p_cQj38_0p_cQj11_0p_cjj31_1p_ctu8_0p_ctd8_0p_ctj8_0p_cQu8_0p_cQd8_1p_ctu1_0p_ctd1_0p_ctj1_0p_cQu1_0p_cQd1_0p'
p21
I75
sS'ctGRe_0p_cQj18_0p_cQj38_0p_cQj11_0p_cjj31_1p_ctu8_1p_ctd8_0p_ctj8_0p_cQu8_0p_cQd8_0p_ctu1_0p_ctd1_0p_ctj1_0p_cQu1_0p_cQd1_0p'
p22
I71
sS'ctGRe_0p_cQj18_0p_cQj38_1p_cQj11_0p_cjj31_0p_ctu8_0p_ctd8_0p_ctj8_0p_cQu8_1p_cQd8_0p_ctu1_0p_ctd1_0p_ctj1_0p_cQu1_0p_cQd1_0p'
p23
I51
sS'ctGRe_1p_cQj18_0p_cQj38_0p_cQj11_1p_cjj31_0p_ctu8_0p_ctd8_0p_ctj8_0p_cQu8_0p_cQd8_0p_ctu1_0p_ctd1_0p_ctj1_0p_cQu1_0p_cQd1_0p'
p24
I19
sS'ctGRe_0p_cQj18_1p_cQj38_0p_cQj11_0p_cjj31_0p_ctu8_0p_ctd8_0p_ctj8_0p_cQu8_0p_cQd8_0p_ctu1_0p_ctd1_0p_ctj1_0p_cQu1_1p_cQd1_0p'
p25
I43
sS'ctGRe_0p_cQj18_0p_cQj38_0p_cQj11_0p_cjj31_0p_ctu8_0p_ctd8_0p_ctj8_0p_cQu8_0p_cQd8_0p_ctu1_0p_ctd1_0p_ctj1_1p_cQu1_0p_cQd1_1p'
p26
I132
sS'ctGRe_0p_cQj18_1p_cQj38_0p_cQj11_0p_cjj31_0p_ctu8_0p_ctd8_0p_ctj8_1p_cQu8_0p_cQd8_0p_ctu1_0p_ctd1_0p_ctj1_0p_cQu1_0p_cQd1_0p'
p27
I37
sS'ctGRe_0p_cQj18_0p_cQj38_0p_cQj11_0p_cjj31_0p_ctu8_0p_ctd8_0p_ctj8_0p_cQu8_2p_cQd8_0p_ctu1_0p_ctd1_0p_ctj1_0p_cQu1_0p_cQd1_0p'
p28
I108
sS'ctGRe_0p_cQj18_0p_cQj38_0p_cQj11_0p_cjj31_0p_ctu8_0p_ctd8_0p_ctj8_0p_cQu8_0p_cQd8_0p_ctu1_0p_ctd1_1p_ctj1_0p_cQu1_1p_cQd1_0p'
p29
I128
sS'ctGRe_1p_cQj18_0p_cQj38_0p_cQj11_0p_cjj31_1p_ctu8_0p_ctd8_0p_ctj8_0p_cQu8_0p_cQd8_0p_ctu1_0p_ctd1_0p_ctj1_0p_cQu1_0p_cQd1_0p'
p30
I20
sS'ctGRe_0p_cQj18_0p_cQj38_0p_cQj11_0p_cjj31_0p_ctu8_0p_ctd8_0p_ctj8_1p_cQu8_0p_cQd8_0p_ctu1_0p_ctd1_0p_ctj1_0p_cQu1_0p_cQd1_0p'
p31
I8
sS'ctGRe_0p_cQj18_0p_cQj38_0p_cQj11_0p_cjj31_0p_ctu8_0p_ctd8_1p_ctj8_0p_cQu8_1p_cQd8_0p_ctu1_0p_ctd1_0p_ctj1_0p_cQu1_0p_cQd1_0p'
p32
I93
sS'ctGRe_0p_cQj18_1p_cQj38_0p_cQj11_0p_cjj31_0p_ctu8_0p_ctd8_0p_ctj8_0p_cQu8_0p_cQd8_1p_ctu1_0p_ctd1_0p_ctj1_0p_cQu1_0p_cQd1_0p'
p33
I39
sS'ctGRe_1p_cQj18_0p_cQj38_0p_cQj11_0p_cjj31_0p_ctu8_0p_ctd8_0p_ctj8_0p_cQu8_0p_cQd8_0p_ctu1_0p_ctd1_1p_ctj1_0p_cQu1_0p_cQd1_0p'
p34
I27
sS'ctGRe_0p_cQj18_0p_cQj38_0p_cQj11_0p_cjj31_0p_ctu8_0p_ctd8_0p_ctj8_0p_cQu8_0p_cQd8_0p_ctu1_0p_ctd1_0p_ctj1_0p_cQu1_0p_cQd1_2p'
p35
I135
sS'ctGRe_1p_cQj18_0p_cQj38_0p_cQj11_0p_cjj31_0p_ctu8_0p_ctd8_0p_ctj8_0p_cQu8_0p_cQd8_0p_ctu1_0p_ctd1_0p_ctj1_0p_cQu1_0p_cQd1_0p'
p36
I1
sS'ctGRe_0p_cQj18_0p_cQj38_0p_cQj11_0p_cjj31_0p_ctu8_0p_ctd8_0p_ctj8_1p_cQu8_0p_cQd8_0p_ctu1_0p_ctd1_1p_ctj1_0p_cQu1_0p_cQd1_0p'
p37
I104
sS'ctGRe_0p_cQj18_0p_cQj38_0p_cQj11_0p_cjj31_0p_ctu8_0p_ctd8_0p_ctj8_0p_cQu8_0p_cQd8_0p_ctu1_0p_ctd1_1p_ctj1_1p_cQu1_0p_cQd1_0p'
p38
I127
sS'ctGRe_0p_cQj18_0p_cQj38_0p_cQj11_0p_cjj31_0p_ctu8_1p_ctd8_0p_ctj8_0p_cQu8_0p_cQd8_0p_ctu1_0p_ctd1_1p_ctj1_0p_cQu1_0p_cQd1_0p'
p39
I87
sS'ctGRe_0p_cQj18_0p_cQj38_0p_cQj11_1p_cjj31_0p_ctu8_0p_ctd8_0p_ctj8_0p_cQu8_0p_cQd8_0p_ctu1_0p_ctd1_0p_ctj1_0p_cQu1_0p_cQd1_1p'
p40
I69
sS'ctGRe_0p_cQj18_1p_cQj38_0p_cQj11_0p_cjj31_0p_ctu8_0p_ctd8_0p_ctj8_0p_cQu8_0p_cQd8_0p_ctu1_0p_ctd1_0p_ctj1_1p_cQu1_0p_cQd1_0p'
p41
I42
sS'ctGRe_0p_cQj18_0p_cQj38_0p_cQj11_0p_cjj31_1p_ctu8_0p_ctd8_0p_ctj8_0p_cQu8_0p_cQd8_0p_ctu1_0p_ctd1_0p_ctj1_0p_cQu1_0p_cQd1_1p'
p42
I80
sS'ctGRe_0p_cQj18_0p_cQj38_0p_cQj11_0p_cjj31_0p_ctu8_1p_ctd8_0p_ctj8_0p_cQu8_0p_cQd8_0p_ctu1_0p_ctd1_0p_ctj1_0p_cQu1_0p_cQd1_1p'
p43
I90
sS'ctGRe_0p_cQj18_0p_cQj38_0p_cQj11_1p_cjj31_0p_ctu8_0p_ctd8_1p_ctj8_0p_cQu8_0p_cQd8_0p_ctu1_0p_ctd1_0p_ctj1_0p_cQu1_0p_cQd1_0p'
p44
I61
sS'ctGRe_0p_cQj18_0p_cQj38_0p_cQj11_0p_cjj31_0p_ctu8_1p_ctd8_0p_ctj8_0p_cQu8_0p_cQd8_1p_ctu1_0p_ctd1_0p_ctj1_0p_cQu1_0p_cQd1_0p'
p45
I85
sS'ctGRe_0p_cQj18_0p_cQj38_0p_cQj11_0p_cjj31_0p_ctu8_0p_ctd8_0p_ctj8_1p_cQu8_0p_cQd8_0p_ctu1_0p_ctd1_0p_ctj1_0p_cQu1_0p_cQd1_1p'
p46
I107
sS'ctGRe_0p_cQj18_0p_cQj38_0p_cQj11_1p_cjj31_0p_ctu8_0p_ctd8_0p_ctj8_0p_cQu8_1p_cQd8_0p_ctu1_0p_ctd1_0p_ctj1_0p_cQu1_0p_cQd1_0p'
p47
I63
sS'ctGRe_0p_cQj18_0p_cQj38_0p_cQj11_0p_cjj31_0p_ctu8_0p_ctd8_0p_ctj8_0p_cQu8_0p_cQd8_0p_ctu1_0p_ctd1_0p_ctj1_1p_cQu1_0p_cQd1_0p'
p48
I13
sS'ctGRe_0p_cQj18_0p_cQj38_0p_cQj11_1p_cjj31_0p_ctu8_0p_ctd8_0p_ctj8_0p_cQu8_0p_cQd8_0p_ctu1_0p_ctd1_1p_ctj1_0p_cQu1_0p_cQd1_0p'
p49
I66
sS'ctGRe_0p_cQj18_0p_cQj38_0p_cQj11_0p_cjj31_0p_ctu8_0p_ctd8_0p_ctj8_0p_cQu8_0p_cQd8_1p_ctu1_0p_ctd1_0p_ctj1_0p_cQu1_1p_cQd1_0p'
p50
I119
sS'ctGRe_0p_cQj18_1p_cQj38_0p_cQj11_0p_cjj31_0p_ctu8_0p_ctd8_0p_ctj8_0p_cQu8_0p_cQd8_0p_ctu1_0p_ctd1_0p_ctj1_0p_cQu1_0p_cQd1_1p'
p51
I44
sS'ctGRe_0p_cQj18_1p_cQj38_0p_cQj11_1p_cjj31_0p_ctu8_0p_ctd8_0p_ctj8_0p_cQu8_0p_cQd8_0p_ctu1_0p_ctd1_0p_ctj1_0p_cQu1_0p_cQd1_0p'
p52
I33
sS'ctGRe_0p_cQj18_0p_cQj38_0p_cQj11_0p_cjj31_0p_ctu8_0p_ctd8_0p_ctj8_0p_cQu8_0p_cQd8_0p_ctu1_1p_ctd1_0p_ctj1_0p_cQu1_0p_cQd1_1p'
p53
I125
sS'ctGRe_0p_cQj18_0p_cQj38_0p_cQj11_0p_cjj31_0p_ctu8_1p_ctd8_0p_ctj8_0p_cQu8_0p_cQd8_0p_ctu1_1p_ctd1_0p_ctj1_0p_cQu1_0p_cQd1_0p'
p54
I86
sS'ctGRe_0p_cQj18_1p_cQj38_0p_cQj11_0p_cjj31_0p_ctu8_0p_ctd8_0p_ctj8_0p_cQu8_1p_cQd8_0p_ctu1_0p_ctd1_0p_ctj1_0p_cQu1_0p_cQd1_0p'
p55
I38
sS'ctGRe_0p_cQj18_0p_cQj38_0p_cQj11_0p_cjj31_1p_ctu8_0p_ctd8_0p_ctj8_0p_cQu8_0p_cQd8_0p_ctu1_1p_ctd1_0p_ctj1_0p_cQu1_0p_cQd1_0p'
p56
I76
sS'ctGRe_0p_cQj18_0p_cQj38_0p_cQj11_0p_cjj31_0p_ctu8_0p_ctd8_2p_ctj8_0p_cQu8_0p_cQd8_0p_ctu1_0p_ctd1_0p_ctj1_0p_cQu1_0p_cQd1_0p'
p57
I91
sS'ctGRe_0p_cQj18_0p_cQj38_0p_cQj11_0p_cjj31_1p_ctu8_0p_ctd8_0p_ctj8_0p_cQu8_0p_cQd8_0p_ctu1_0p_ctd1_0p_ctj1_0p_cQu1_0p_cQd1_0p'
p58
I5
sS'ctGRe_0p_cQj18_0p_cQj38_0p_cQj11_1p_cjj31_0p_ctu8_0p_ctd8_0p_ctj8_0p_cQu8_0p_cQd8_0p_ctu1_0p_ctd1_0p_ctj1_0p_cQu1_0p_cQd1_0p'
p59
I4
sS'ctGRe_0p_cQj18_0p_cQj38_0p_cQj11_0p_cjj31_0p_ctu8_1p_ctd8_0p_ctj8_0p_cQu8_1p_cQd8_0p_ctu1_0p_ctd1_0p_ctj1_0p_cQu1_0p_cQd1_0p'
p60
I84
sS'ctGRe_0p_cQj18_0p_cQj38_0p_cQj11_0p_cjj31_0p_ctu8_0p_ctd8_0p_ctj8_0p_cQu8_0p_cQd8_0p_ctu1_1p_ctd1_1p_ctj1_0p_cQu1_0p_cQd1_0p'
p61
I122
sS'ctGRe_0p_cQj18_1p_cQj38_1p_cQj11_0p_cjj31_0p_ctu8_0p_ctd8_0p_ctj8_0p_cQu8_0p_cQd8_0p_ctu1_0p_ctd1_0p_ctj1_0p_cQu1_0p_cQd1_0p'
p62
I32
sS'ctGRe_0p_cQj18_0p_cQj38_1p_cQj11_0p_cjj31_0p_ctu8_0p_ctd8_0p_ctj8_1p_cQu8_0p_cQd8_0p_ctu1_0p_ctd1_0p_ctj1_0p_cQu1_0p_cQd1_0p'
p63
I50
sS'ctGRe_0p_cQj18_0p_cQj38_0p_cQj11_0p_cjj31_0p_ctu8_0p_ctd8_0p_ctj8_1p_cQu8_0p_cQd8_0p_ctu1_0p_ctd1_0p_ctj1_0p_cQu1_1p_cQd1_0p'
p64
I106
sS'ctGRe_0p_cQj18_1p_cQj38_0p_cQj11_0p_cjj31_0p_ctu8_0p_ctd8_0p_ctj8_0p_cQu8_0p_cQd8_0p_ctu1_0p_ctd1_0p_ctj1_0p_cQu1_0p_cQd1_0p'
p65
I2
sS'ctGRe_0p_cQj18_0p_cQj38_0p_cQj11_0p_cjj31_0p_ctu8_0p_ctd8_0p_ctj8_0p_cQu8_1p_cQd8_0p_ctu1_0p_ctd1_1p_ctj1_0p_cQu1_0p_cQd1_0p'
p66
I111
sS'ctGRe_0p_cQj18_0p_cQj38_1p_cQj11_0p_cjj31_0p_ctu8_0p_ctd8_1p_ctj8_0p_cQu8_0p_cQd8_0p_ctu1_0p_ctd1_0p_ctj1_0p_cQu1_0p_cQd1_0p'
p67
I49
sS'ctGRe_0p_cQj18_0p_cQj38_0p_cQj11_0p_cjj31_0p_ctu8_0p_ctd8_0p_ctj8_0p_cQu8_1p_cQd8_0p_ctu1_0p_ctd1_0p_ctj1_0p_cQu1_0p_cQd1_1p'
p68
I114
sS'ctGRe_0p_cQj18_0p_cQj38_0p_cQj11_1p_cjj31_0p_ctu8_0p_ctd8_0p_ctj8_0p_cQu8_0p_cQd8_0p_ctu1_0p_ctd1_0p_ctj1_1p_cQu1_0p_cQd1_0p'
p69
I67
sS'ctGRe_0p_cQj18_0p_cQj38_0p_cQj11_0p_cjj31_0p_ctu8_0p_ctd8_0p_ctj8_0p_cQu8_0p_cQd8_1p_ctu1_0p_ctd1_0p_ctj1_0p_cQu1_0p_cQd1_0p'
p70
I10
sS'ctGRe_0p_cQj18_1p_cQj38_0p_cQj11_0p_cjj31_0p_ctu8_0p_ctd8_1p_ctj8_0p_cQu8_0p_cQd8_0p_ctu1_0p_ctd1_0p_ctj1_0p_cQu1_0p_cQd1_0p'
p71
I36
sS'ctGRe_0p_cQj18_0p_cQj38_0p_cQj11_0p_cjj31_0p_ctu8_0p_ctd8_0p_ctj8_0p_cQu8_0p_cQd8_0p_ctu1_1p_ctd1_0p_ctj1_0p_cQu1_0p_cQd1_0p'
p72
I11
sS'ctGRe_0p_cQj18_0p_cQj38_0p_cQj11_0p_cjj31_0p_ctu8_1p_ctd8_0p_ctj8_0p_cQu8_0p_cQd8_0p_ctu1_0p_ctd1_0p_ctj1_0p_cQu1_1p_cQd1_0p'
p73
I89
sS'ctGRe_0p_cQj18_0p_cQj38_0p_cQj11_0p_cjj31_0p_ctu8_2p_ctd8_0p_ctj8_0p_cQu8_0p_cQd8_0p_ctu1_0p_ctd1_0p_ctj1_0p_cQu1_0p_cQd1_0p'
p74
I81
sS'ctGRe_0p_cQj18_0p_cQj38_0p_cQj11_0p_cjj31_0p_ctu8_0p_ctd8_0p_ctj8_0p_cQu8_1p_cQd8_1p_ctu1_0p_ctd1_0p_ctj1_0p_cQu1_0p_cQd1_0p'
p75
I109
sS'ctGRe_0p_cQj18_0p_cQj38_0p_cQj11_0p_cjj31_0p_ctu8_0p_ctd8_0p_ctj8_0p_cQu8_0p_cQd8_0p_ctu1_0p_ctd1_0p_ctj1_1p_cQu1_1p_cQd1_0p'
p76
I131
sS'ctGRe_0p_cQj18_0p_cQj38_1p_cQj11_0p_cjj31_0p_ctu8_1p_ctd8_0p_ctj8_0p_cQu8_0p_cQd8_0p_ctu1_0p_ctd1_0p_ctj1_0p_cQu1_0p_cQd1_0p'
p77
I48
sS'ctGRe_0p_cQj18_0p_cQj38_1p_cQj11_0p_cjj31_0p_ctu8_0p_ctd8_0p_ctj8_0p_cQu8_0p_cQd8_0p_ctu1_0p_ctd1_1p_ctj1_0p_cQu1_0p_cQd1_0p'
p78
I54
sS'ctGRe_0p_cQj18_1p_cQj38_0p_cQj11_0p_cjj31_0p_ctu8_1p_ctd8_0p_ctj8_0p_cQu8_0p_cQd8_0p_ctu1_0p_ctd1_0p_ctj1_0p_cQu1_0p_cQd1_0p'
p79
I35
sS'ctGRe_0p_cQj18_0p_cQj38_1p_cQj11_0p_cjj31_0p_ctu8_0p_ctd8_0p_ctj8_0p_cQu8_0p_cQd8_0p_ctu1_0p_ctd1_0p_ctj1_1p_cQu1_0p_cQd1_0p'
p80
I55
sS'ctGRe_0p_cQj18_0p_cQj38_1p_cQj11_0p_cjj31_0p_ctu8_0p_ctd8_0p_ctj8_0p_cQu8_0p_cQd8_0p_ctu1_1p_ctd1_0p_ctj1_0p_cQu1_0p_cQd1_0p'
p81
I53
sS'ctGRe_0p_cQj18_0p_cQj38_0p_cQj11_0p_cjj31_0p_ctu8_0p_ctd8_0p_ctj8_1p_cQu8_0p_cQd8_0p_ctu1_0p_ctd1_0p_ctj1_1p_cQu1_0p_cQd1_0p'
p82
I105
sS'ctGRe_0p_cQj18_0p_cQj38_0p_cQj11_0p_cjj31_1p_ctu8_0p_ctd8_1p_ctj8_0p_cQu8_0p_cQd8_0p_ctu1_0p_ctd1_0p_ctj1_0p_cQu1_0p_cQd1_0p'
p83
I72
sS'ctGRe_0p_cQj18_0p_cQj38_0p_cQj11_0p_cjj31_0p_ctu8_0p_ctd8_0p_ctj8_0p_cQu8_1p_cQd8_0p_ctu1_0p_ctd1_0p_ctj1_0p_cQu1_0p_cQd1_0p'
p84
I9
sS'ctGRe_1p_cQj18_0p_cQj38_0p_cQj11_0p_cjj31_0p_ctu8_0p_ctd8_0p_ctj8_0p_cQu8_1p_cQd8_0p_ctu1_0p_ctd1_0p_ctj1_0p_cQu1_0p_cQd1_0p'
p85
I24
sS'ctGRe_0p_cQj18_0p_cQj38_0p_cQj11_0p_cjj31_0p_ctu8_0p_ctd8_1p_ctj8_1p_cQu8_0p_cQd8_0p_ctu1_0p_ctd1_0p_ctj1_0p_cQu1_0p_cQd1_0p'
p86
I92
sS'ctGRe_0p_cQj18_1p_cQj38_0p_cQj11_0p_cjj31_0p_ctu8_0p_ctd8_0p_ctj8_0p_cQu8_0p_cQd8_0p_ctu1_1p_ctd1_0p_ctj1_0p_cQu1_0p_cQd1_0p'
p87
I40
sS'ctGRe_0p_cQj18_0p_cQj38_0p_cQj11_0p_cjj31_2p_ctu8_0p_ctd8_0p_ctj8_0p_cQu8_0p_cQd8_0p_ctu1_0p_ctd1_0p_ctj1_0p_cQu1_0p_cQd1_0p'
p88
I70
sS'ctGRe_0p_cQj18_0p_cQj38_0p_cQj11_0p_cjj31_0p_ctu8_0p_ctd8_1p_ctj8_0p_cQu8_0p_cQd8_0p_ctu1_1p_ctd1_0p_ctj1_0p_cQu1_0p_cQd1_0p'
p89
I95
sS'ctGRe_0p_cQj18_0p_cQj38_0p_cQj11_0p_cjj31_0p_ctu8_0p_ctd8_0p_ctj8_2p_cQu8_0p_cQd8_0p_ctu1_0p_ctd1_0p_ctj1_0p_cQu1_0p_cQd1_0p'
p90
I100
sS'ctGRe_1p_cQj18_0p_cQj38_0p_cQj11_0p_cjj31_0p_ctu8_0p_ctd8_0p_ctj8_0p_cQu8_0p_cQd8_0p_ctu1_0p_ctd1_0p_ctj1_0p_cQu1_1p_cQd1_0p'
p91
I29
sS'ctGRe_0p_cQj18_0p_cQj38_0p_cQj11_0p_cjj31_1p_ctu8_0p_ctd8_0p_ctj8_0p_cQu8_0p_cQd8_0p_ctu1_0p_ctd1_0p_ctj1_0p_cQu1_1p_cQd1_0p'
p92
I79
sS'ctGRe_0p_cQj18_0p_cQj38_0p_cQj11_2p_cjj31_0p_ctu8_0p_ctd8_0p_ctj8_0p_cQu8_0p_cQd8_0p_ctu1_0p_ctd1_0p_ctj1_0p_cQu1_0p_cQd1_0p'
p93
I58
sS'ctGRe_0p_cQj18_0p_cQj38_0p_cQj11_1p_cjj31_0p_ctu8_0p_ctd8_0p_ctj8_0p_cQu8_0p_cQd8_0p_ctu1_1p_ctd1_0p_ctj1_0p_cQu1_0p_cQd1_0p'
p94
I65
sS'ctGRe_0p_cQj18_0p_cQj38_0p_cQj11_0p_cjj31_1p_ctu8_0p_ctd8_0p_ctj8_0p_cQu8_0p_cQd8_0p_ctu1_0p_ctd1_1p_ctj1_0p_cQu1_0p_cQd1_0p'
p95
I77
sS'ctGRe_0p_cQj18_0p_cQj38_0p_cQj11_0p_cjj31_0p_ctu8_0p_ctd8_0p_ctj8_0p_cQu8_0p_cQd8_1p_ctu1_1p_ctd1_0p_ctj1_0p_cQu1_0p_cQd1_0p'
p96
I116
sS'ctGRe_1p_cQj18_0p_cQj38_0p_cQj11_0p_cjj31_0p_ctu8_1p_ctd8_0p_ctj8_0p_cQu8_0p_cQd8_0p_ctu1_0p_ctd1_0p_ctj1_0p_cQu1_0p_cQd1_0p'
p97
I21
sS'ctGRe_1p_cQj18_0p_cQj38_0p_cQj11_0p_cjj31_0p_ctu8_0p_ctd8_0p_ctj8_0p_cQu8_0p_cQd8_0p_ctu1_1p_ctd1_0p_ctj1_0p_cQu1_0p_cQd1_0p'
p98
I26
sS'ctGRe_1p_cQj18_0p_cQj38_0p_cQj11_0p_cjj31_0p_ctu8_0p_ctd8_0p_ctj8_0p_cQu8_0p_cQd8_1p_ctu1_0p_ctd1_0p_ctj1_0p_cQu1_0p_cQd1_0p'
p99
I25
sS'ctGRe_0p_cQj18_0p_cQj38_0p_cQj11_0p_cjj31_0p_ctu8_0p_ctd8_1p_ctj8_0p_cQu8_0p_cQd8_0p_ctu1_0p_ctd1_0p_ctj1_0p_cQu1_0p_cQd1_1p'
p100
I99
sS'ctGRe_0p_cQj18_0p_cQj38_0p_cQj11_0p_cjj31_1p_ctu8_0p_ctd8_0p_ctj8_0p_cQu8_0p_cQd8_0p_ctu1_0p_ctd1_0p_ctj1_1p_cQu1_0p_cQd1_0p'
p101
I78
sS'ctGRe_0p_cQj18_0p_cQj38_0p_cQj11_0p_cjj31_0p_ctu8_0p_ctd8_0p_ctj8_0p_cQu8_0p_cQd8_0p_ctu1_1p_ctd1_0p_ctj1_0p_cQu1_1p_cQd1_0p'
p102
I124
sS'ctGRe_0p_cQj18_0p_cQj38_0p_cQj11_0p_cjj31_0p_ctu8_0p_ctd8_0p_ctj8_0p_cQu8_0p_cQd8_0p_ctu1_2p_ctd1_0p_ctj1_0p_cQu1_0p_cQd1_0p'
p103
I121
sS'ctGRe_1p_cQj18_0p_cQj38_0p_cQj11_0p_cjj31_0p_ctu8_0p_ctd8_0p_ctj8_0p_cQu8_0p_cQd8_0p_ctu1_0p_ctd1_0p_ctj1_1p_cQu1_0p_cQd1_0p'
p104
I28
sS'ctGRe_0p_cQj18_0p_cQj38_0p_cQj11_0p_cjj31_0p_ctu8_0p_ctd8_1p_ctj8_0p_cQu8_0p_cQd8_0p_ctu1_0p_ctd1_0p_ctj1_0p_cQu1_0p_cQd1_0p'
p105
I7
sS'ctGRe_0p_cQj18_0p_cQj38_1p_cQj11_1p_cjj31_0p_ctu8_0p_ctd8_0p_ctj8_0p_cQu8_0p_cQd8_0p_ctu1_0p_ctd1_0p_ctj1_0p_cQu1_0p_cQd1_0p'
p106
I46
sS'ctGRe_0p_cQj18_0p_cQj38_0p_cQj11_0p_cjj31_0p_ctu8_0p_ctd8_0p_ctj8_0p_cQu8_0p_cQd8_0p_ctu1_0p_ctd1_0p_ctj1_0p_cQu1_1p_cQd1_0p'
p107
I14
sS'ctGRe_0p_cQj18_0p_cQj38_1p_cQj11_0p_cjj31_1p_ctu8_0p_ctd8_0p_ctj8_0p_cQu8_0p_cQd8_0p_ctu1_0p_ctd1_0p_ctj1_0p_cQu1_0p_cQd1_0p'
p108
I47
sS'ctGRe_0p_cQj18_0p_cQj38_0p_cQj11_0p_cjj31_0p_ctu8_0p_ctd8_0p_ctj8_0p_cQu8_0p_cQd8_0p_ctu1_1p_ctd1_0p_ctj1_1p_cQu1_0p_cQd1_0p'
p109
I123
sS'ctGRe_0p_cQj18_0p_cQj38_0p_cQj11_0p_cjj31_0p_ctu8_0p_ctd8_0p_ctj8_0p_cQu8_0p_cQd8_2p_ctu1_0p_ctd1_0p_ctj1_0p_cQu1_0p_cQd1_0p'
p110
I115
sS'ctGRe_0p_cQj18_0p_cQj38_0p_cQj11_0p_cjj31_0p_ctu8_0p_ctd8_1p_ctj8_0p_cQu8_0p_cQd8_0p_ctu1_0p_ctd1_0p_ctj1_1p_cQu1_0p_cQd1_0p'
p111
I97
sS'ctGRe_0p_cQj18_0p_cQj38_0p_cQj11_0p_cjj31_0p_ctu8_1p_ctd8_1p_ctj8_0p_cQu8_0p_cQd8_0p_ctu1_0p_ctd1_0p_ctj1_0p_cQu1_0p_cQd1_0p'
p112
I82
sS'ctGRe_0p_cQj18_0p_cQj38_0p_cQj11_1p_cjj31_0p_ctu8_0p_ctd8_0p_ctj8_0p_cQu8_0p_cQd8_1p_ctu1_0p_ctd1_0p_ctj1_0p_cQu1_0p_cQd1_0p'
p113
I64
sS'ctGRe_0p_cQj18_0p_cQj38_0p_cQj11_0p_cjj31_0p_ctu8_0p_ctd8_0p_ctj8_0p_cQu8_0p_cQd8_0p_ctu1_0p_ctd1_1p_ctj1_0p_cQu1_0p_cQd1_1p'
p114
I129
sS'ctGRe_0p_cQj18_0p_cQj38_0p_cQj11_0p_cjj31_1p_ctu8_0p_ctd8_0p_ctj8_0p_cQu8_1p_cQd8_0p_ctu1_0p_ctd1_0p_ctj1_0p_cQu1_0p_cQd1_0p'
p115
I74
sS'ctGRe_1p_cQj18_1p_cQj38_0p_cQj11_0p_cjj31_0p_ctu8_0p_ctd8_0p_ctj8_0p_cQu8_0p_cQd8_0p_ctu1_0p_ctd1_0p_ctj1_0p_cQu1_0p_cQd1_0p'
p116
I17
sS'ctGRe_0p_cQj18_0p_cQj38_0p_cQj11_0p_cjj31_0p_ctu8_1p_ctd8_0p_ctj8_0p_cQu8_0p_cQd8_0p_ctu1_0p_ctd1_0p_ctj1_0p_cQu1_0p_cQd1_0p'
p117
I6
sS'ctGRe_1p_cQj18_0p_cQj38_0p_cQj11_0p_cjj31_0p_ctu8_0p_ctd8_1p_ctj8_0p_cQu8_0p_cQd8_0p_ctu1_0p_ctd1_0p_ctj1_0p_cQu1_0p_cQd1_0p'
p118
I22
sS'ctGRe_0p_cQj18_0p_cQj38_0p_cQj11_0p_cjj31_0p_ctu8_0p_ctd8_0p_ctj8_0p_cQu8_0p_cQd8_0p_ctu1_0p_ctd1_0p_ctj1_2p_cQu1_0p_cQd1_0p'
p119
I130
sS'ctGRe_1p_cQj18_0p_cQj38_0p_cQj11_0p_cjj31_0p_ctu8_0p_ctd8_0p_ctj8_1p_cQu8_0p_cQd8_0p_ctu1_0p_ctd1_0p_ctj1_0p_cQu1_0p_cQd1_0p'
p120
I23
sS'ctGRe_0p_cQj18_0p_cQj38_0p_cQj11_0p_cjj31_0p_ctu8_0p_ctd8_1p_ctj8_0p_cQu8_0p_cQd8_0p_ctu1_0p_ctd1_1p_ctj1_0p_cQu1_0p_cQd1_0p'
p121
I96
sS'ctGRe_0p_cQj18_1p_cQj38_0p_cQj11_0p_cjj31_1p_ctu8_0p_ctd8_0p_ctj8_0p_cQu8_0p_cQd8_0p_ctu1_0p_ctd1_0p_ctj1_0p_cQu1_0p_cQd1_0p'
p122
I34
sS'ctGRe_0p_cQj18_0p_cQj38_1p_cQj11_0p_cjj31_0p_ctu8_0p_ctd8_0p_ctj8_0p_cQu8_0p_cQd8_0p_ctu1_0p_ctd1_0p_ctj1_0p_cQu1_0p_cQd1_1p'
p123
I57
sS'ctGRe_1p_cQj18_0p_cQj38_1p_cQj11_0p_cjj31_0p_ctu8_0p_ctd8_0p_ctj8_0p_cQu8_0p_cQd8_0p_ctu1_0p_ctd1_0p_ctj1_0p_cQu1_0p_cQd1_0p'
p124
I18
sS'ctGRe_0p_cQj18_0p_cQj38_2p_cQj11_0p_cjj31_0p_ctu8_0p_ctd8_0p_ctj8_0p_cQu8_0p_cQd8_0p_ctu1_0p_ctd1_0p_ctj1_0p_cQu1_0p_cQd1_0p'
p125
I45
sS'ctGRe_0p_cQj18_0p_cQj38_0p_cQj11_1p_cjj31_0p_ctu8_1p_ctd8_0p_ctj8_0p_cQu8_0p_cQd8_0p_ctu1_0p_ctd1_0p_ctj1_0p_cQu1_0p_cQd1_0p'
p126
I60
sS'ctGRe_0p_cQj18_0p_cQj38_0p_cQj11_1p_cjj31_0p_ctu8_0p_ctd8_0p_ctj8_1p_cQu8_0p_cQd8_0p_ctu1_0p_ctd1_0p_ctj1_0p_cQu1_0p_cQd1_0p'
p127
I62
sS'ctGRe_0p_cQj18_0p_cQj38_0p_cQj11_0p_cjj31_0p_ctu8_0p_ctd8_0p_ctj8_0p_cQu8_1p_cQd8_0p_ctu1_1p_ctd1_0p_ctj1_0p_cQu1_0p_cQd1_0p'
p128
I110
sS'ctGRe_0p_cQj18_0p_cQj38_0p_cQj11_0p_cjj31_0p_ctu8_0p_ctd8_0p_ctj8_0p_cQu8_0p_cQd8_1p_ctu1_0p_ctd1_0p_ctj1_0p_cQu1_0p_cQd1_1p'
p129
I120
sS'ctGRe_0p_cQj18_0p_cQj38_0p_cQj11_0p_cjj31_0p_ctu8_0p_ctd8_0p_ctj8_0p_cQu8_0p_cQd8_0p_ctu1_0p_ctd1_2p_ctj1_0p_cQu1_0p_cQd1_0p'
p130
I126
sS'ctGRe_0p_cQj18_0p_cQj38_0p_cQj11_0p_cjj31_0p_ctu8_0p_ctd8_0p_ctj8_0p_cQu8_0p_cQd8_0p_ctu1_0p_ctd1_1p_ctj1_0p_cQu1_0p_cQd1_0p'
p131
I12
sS'ctGRe_0p_cQj18_1p_cQj38_0p_cQj11_0p_cjj31_0p_ctu8_0p_ctd8_0p_ctj8_0p_cQu8_0p_cQd8_0p_ctu1_0p_ctd1_1p_ctj1_0p_cQu1_0p_cQd1_0p'
p132
I41
sS'ctGRe_0p_cQj18_0p_cQj38_1p_cQj11_0p_cjj31_0p_ctu8_0p_ctd8_0p_ctj8_0p_cQu8_0p_cQd8_0p_ctu1_0p_ctd1_0p_ctj1_0p_cQu1_1p_cQd1_0p'
p133
I56
sS'ctGRe_0p_cQj18_0p_cQj38_0p_cQj11_0p_cjj31_0p_ctu8_0p_ctd8_0p_ctj8_0p_cQu8_0p_cQd8_0p_ctu1_0p_ctd1_0p_ctj1_0p_cQu1_0p_cQd1_0p'
p134
I0
sS'ctGRe_0p_cQj18_0p_cQj38_0p_cQj11_0p_cjj31_0p_ctu8_0p_ctd8_0p_ctj8_1p_cQu8_1p_cQd8_0p_ctu1_0p_ctd1_0p_ctj1_0p_cQu1_0p_cQd1_0p'
p135
I101
sS'ctGRe_0p_cQj18_0p_cQj38_0p_cQj11_1p_cjj31_1p_ctu8_0p_ctd8_0p_ctj8_0p_cQu8_0p_cQd8_0p_ctu1_0p_ctd1_0p_ctj1_0p_cQu1_0p_cQd1_0p'
p136
I59
sS'ctGRe_0p_cQj18_0p_cQj38_0p_cQj11_0p_cjj31_0p_ctu8_0p_ctd8_0p_ctj8_0p_cQu8_0p_cQd8_0p_ctu1_0p_ctd1_0p_ctj1_0p_cQu1_2p_cQd1_0p'
p137
I133
sS'ctGRe_0p_cQj18_0p_cQj38_0p_cQj11_0p_cjj31_0p_ctu8_0p_ctd8_0p_ctj8_0p_cQu8_0p_cQd8_0p_ctu1_0p_ctd1_0p_ctj1_0p_cQu1_1p_cQd1_1p'
p138
I134
sS'ctGRe_0p_cQj18_0p_cQj38_0p_cQj11_0p_cjj31_0p_ctu8_0p_ctd8_0p_ctj8_0p_cQu8_0p_cQd8_1p_ctu1_0p_ctd1_0p_ctj1_1p_cQu1_0p_cQd1_0p'
p139
I118
sS'ctGRe_0p_cQj18_0p_cQj38_0p_cQj11_0p_cjj31_0p_ctu8_0p_ctd8_1p_ctj8_0p_cQu8_0p_cQd8_0p_ctu1_0p_ctd1_0p_ctj1_0p_cQu1_1p_cQd1_0p'
p140
I98
ssS'order'
p141
(dp142
g141
I2
ss.